target datalayout = "e-m:e-p270:32:32-p271:32:32-p272:64:64-i64:64-i128:128-f80:128-n8:16:32:64-S128"
target triple = "x86_64-pc-linux-gnu"

%class.Register = type { i32 }
%class.XMMRegister = type { i32 }
%class.RelocationHolder = type { [40 x i8] }
%class.MachNode = type { %class.Node.base, i8, i16, ptr }
%class.Node.base = type <{ ptr, ptr, ptr, i32, i32, i32, i32, i32, i32, i32 }>
%class.Address = type { %class.Register, %class.Register, %class.XMMRegister, i32, i32, i8, [3 x i8], %class.RelocationHolder }
%class.MachTypeNode = type { %class.MachNode, ptr }
%class.vmulS_mem_0Node = type { %class.MachTypeNode, [3 x ptr] }

@g_assert_poison = external global ptr, align 8
@.str.22 = private unnamed_addr constant [27 x i8] c"src/hotspot/cpu/x86/x86.ad\00", align 1
@_ZL6xnoreg = internal constant %class.XMMRegister { i32 -1 }, align 4

; Function Attrs: mustprogress nounwind uwtable
define linkonce_odr hidden void @_ZN11XMMRegisterC2Eib(ptr noundef nonnull align 4 dereferenceable(4) %0, i32 noundef %1, i1 noundef zeroext %2) unnamed_addr #1 comdat align 2 {
  %4 = alloca ptr, align 8
  %5 = alloca i32, align 4
  %6 = alloca i8, align 1
  store ptr %0, ptr %4, align 8
  store i32 %1, ptr %5, align 4
  %7 = zext i1 %2 to i8
  store i8 %7, ptr %6, align 1
  %8 = load ptr, ptr %4, align 8
  %9 = getelementptr inbounds %class.XMMRegister, ptr %8, i32 0, i32 0
  %10 = load i32, ptr %5, align 4
  store i32 %10, ptr %9, align 4
  ret void
}

; Function Attrs: mustprogress nounwind uwtable
define linkonce_odr hidden i32 @_Z14as_XMMRegisteri(i32 noundef %0) #1 comdat {
  %2 = alloca %class.XMMRegister, align 4
  %3 = alloca i32, align 4
  store i32 %0, ptr %3, align 4
  %4 = load i32, ptr %3, align 4
  %5 = icmp sle i32 0, %4
  br i1 %5, label %6, label %11

6:                                                ; preds = %1
  %7 = load i32, ptr %3, align 4
  %8 = icmp slt i32 %7, 32
  br i1 %8, label %9, label %11

9:                                                ; preds = %6
  %10 = load i32, ptr %3, align 4
  call void @_ZN11XMMRegisterC2Eib(ptr noundef nonnull align 4 dereferenceable(4) %2, i32 noundef %10, i1 noundef zeroext false)
  br label %12

11:                                               ; preds = %6, %1
  call void @llvm.memcpy.p0.p0.i64(ptr align 4 %2, ptr align 4 @_ZL6xnoreg, i64 4, i1 false)
  br label %12

12:                                               ; preds = %11, %9
  %13 = getelementptr inbounds %class.XMMRegister, ptr %2, i32 0, i32 0
  %14 = load i32, ptr %13, align 4
  ret i32 %14
}

; Function Attrs: mustprogress nounwind uwtable
define linkonce_odr hidden noundef i32 @_Z22vector_length_encodingi(i32 noundef %0) #1 comdat {
  %2 = alloca i32, align 4
  %3 = alloca i32, align 4
  store i32 %0, ptr %3, align 4
  %4 = load i32, ptr %3, align 4
  switch i32 %4, label %8 [
    i32 4, label %5
    i32 8, label %5
    i32 16, label %5
    i32 32, label %6
    i32 64, label %7
  ]

5:                                                ; preds = %1, %1, %1
  store i32 0, ptr %2, align 4
  br label %12

6:                                                ; preds = %1
  store i32 1, ptr %2, align 4
  br label %12

7:                                                ; preds = %1
  store i32 2, ptr %2, align 4
  br label %12

8:                                                ; preds = %1
  br label %9

9:                                                ; preds = %8
  %10 = load ptr, ptr @g_assert_poison, align 8
  store i8 88, ptr %10, align 1
  call void @_Z28report_should_not_reach_herePKci(ptr noundef @.str.22, i32 noundef 1228) #8
  unreachable

11:                                               ; No predecessors!
  store i32 4, ptr %2, align 4
  br label %12

12:                                               ; preds = %11, %7, %6, %5
  %13 = load i32, ptr %2, align 4
  ret i32 %13
}

; Function Attrs: mustprogress nounwind uwtable
define linkonce_odr hidden i32 @_ZNK8MachOper14as_XMMRegisterEP13PhaseRegAllocPK4Nodei(ptr noundef nonnull align 8 dereferenceable(8) %0, ptr noundef %1, ptr noundef %2, i32 noundef %3) #1 comdat align 2 {
  %5 = alloca %class.XMMRegister, align 4
  %6 = alloca ptr, align 8
  %7 = alloca ptr, align 8
  %8 = alloca ptr, align 8
  %9 = alloca i32, align 4
  store ptr %0, ptr %6, align 8
  store ptr %1, ptr %7, align 8
  store ptr %2, ptr %8, align 8
  store i32 %3, ptr %9, align 4
  %10 = load ptr, ptr %6, align 8
  %11 = load ptr, ptr %7, align 8
  %12 = load ptr, ptr %8, align 8
  %13 = load i32, ptr %9, align 4
  %14 = load ptr, ptr %10, align 8
  %15 = getelementptr inbounds ptr, ptr %14, i64 5
  %16 = load ptr, ptr %15, align 8
  %17 = call noundef i32 %16(ptr noundef nonnull align 8 dereferenceable(8) %10, ptr noundef %11, ptr noundef %12, i32 noundef %13)
  %18 = call i32 @_Z14as_XMMRegisteri(i32 noundef %17)
  %19 = getelementptr inbounds %class.XMMRegister, ptr %5, i32 0, i32 0
  store i32 %18, ptr %19, align 4
  %20 = getelementptr inbounds %class.XMMRegister, ptr %5, i32 0, i32 0
  %21 = load i32, ptr %20, align 4
  ret i32 %21
}

; Function Attrs: mustprogress nounwind uwtable
define linkonce_odr hidden i32 @_ZNK8MachOper14as_XMMRegisterEP13PhaseRegAllocPK4Node(ptr noundef nonnull align 8 dereferenceable(8) %0, ptr noundef %1, ptr noundef %2) #1 comdat align 2 {
  %4 = alloca %class.XMMRegister, align 4
  %5 = alloca ptr, align 8
  %6 = alloca ptr, align 8
  %7 = alloca ptr, align 8
  store ptr %0, ptr %5, align 8
  store ptr %1, ptr %6, align 8
  store ptr %2, ptr %7, align 8
  %8 = load ptr, ptr %5, align 8
  %9 = load ptr, ptr %6, align 8
  %10 = load ptr, ptr %7, align 8
  %11 = load ptr, ptr %8, align 8
  %12 = getelementptr inbounds ptr, ptr %11, i64 4
  %13 = load ptr, ptr %12, align 8
  %14 = call noundef i32 %13(ptr noundef nonnull align 8 dereferenceable(8) %8, ptr noundef %9, ptr noundef %10)
  %15 = call i32 @_Z14as_XMMRegisteri(i32 noundef %14)
  %16 = getelementptr inbounds %class.XMMRegister, ptr %4, i32 0, i32 0
  store i32 %15, ptr %16, align 4
  %17 = getelementptr inbounds %class.XMMRegister, ptr %4, i32 0, i32 0
  %18 = load i32, ptr %17, align 4
  ret i32 %18
}

; Function Attrs: mustprogress nounwind uwtable
define internal noundef i32 @_ZL22vector_length_encodingPK4Node(ptr noundef %0) #1 {
  %2 = alloca ptr, align 8
  store ptr %0, ptr %2, align 8
  %3 = load ptr, ptr %2, align 8
  %4 = call noundef i32 @_ZN7Matcher22vector_length_in_bytesEPK4Node(ptr noundef %3)
  %5 = call noundef i32 @_Z22vector_length_encodingi(i32 noundef %4)
  ret i32 %5
}

; Function Attrs: mustprogress nounwind uwtable
define linkonce_odr hidden noundef ptr @_ZNK15vmulS_mem_0Node10opnd_arrayEj(ptr noundef nonnull align 8 dereferenceable(96) %0, i32 noundef %1) #1 comdat align 2 {
  %3 = alloca ptr, align 8
  %4 = alloca i32, align 4
  store ptr %0, ptr %3, align 8
  store i32 %1, ptr %4, align 4
  %5 = load ptr, ptr %3, align 8
  %6 = getelementptr inbounds %class.vmulS_mem_0Node, ptr %5, i32 0, i32 1
  %7 = load i32, ptr %4, align 4
  %8 = zext i32 %7 to i64
  %9 = getelementptr inbounds [3 x ptr], ptr %6, i64 0, i64 %8
  %10 = load ptr, ptr %9, align 8
  ret ptr %10
}

; Function Attrs: mustprogress nounwind uwtable
define hidden void @_ZNK15vmulS_mem_0Node4emitEP17C2_MacroAssemblerP13PhaseRegAlloc(ptr noundef nonnull align 8 dereferenceable(96) %0, ptr noundef %1, ptr noundef %2) unnamed_addr #1 align 2 {
  %4 = alloca ptr, align 8
  %5 = alloca ptr, align 8
  %6 = alloca ptr, align 8
  %7 = alloca i32, align 4
  %8 = alloca i32, align 4
  %9 = alloca i32, align 4
  %10 = alloca i32, align 4
  %11 = alloca %class.XMMRegister, align 4
  %12 = alloca %class.XMMRegister, align 4
  %13 = alloca %class.Address, align 8
  store ptr %0, ptr %4, align 8
  store ptr %1, ptr %5, align 8
  store ptr %2, ptr %6, align 8
  %14 = load ptr, ptr %4, align 8
  store i32 2, ptr %7, align 4
  store i32 2, ptr %8, align 4
  %15 = load i32, ptr %8, align 4
  %16 = call noundef ptr @_ZNK15vmulS_mem_0Node10opnd_arrayEj(ptr noundef nonnull align 8 dereferenceable(96) %14, i32 noundef 1)
  %17 = load ptr, ptr %16, align 8
  %18 = getelementptr inbounds ptr, ptr %17, i64 1
  %19 = load ptr, ptr %18, align 8
  %20 = call noundef i32 %19(ptr noundef nonnull align 8 dereferenceable(8) %16)
  %21 = add i32 %15, %20
  store i32 %21, ptr %9, align 4
  %22 = call noundef i32 @_ZL22vector_length_encodingPK4Node(ptr noundef %14)
  store i32 %22, ptr %10, align 4
  %23 = load ptr, ptr %5, align 8
  %24 = call noundef ptr @_ZNK15vmulS_mem_0Node10opnd_arrayEj(ptr noundef nonnull align 8 dereferenceable(96) %14, i32 noundef 0)
  %25 = load ptr, ptr %6, align 8
  %26 = call i32 @_ZNK8MachOper14as_XMMRegisterEP13PhaseRegAllocPK4Node(ptr noundef nonnull align 8 dereferenceable(8) %24, ptr noundef %25, ptr noundef %14)
  %27 = getelementptr inbounds %class.XMMRegister, ptr %11, i32 0, i32 0
  store i32 %26, ptr %27, align 4
  %28 = call noundef ptr @_ZNK15vmulS_mem_0Node10opnd_arrayEj(ptr noundef nonnull align 8 dereferenceable(96) %14, i32 noundef 2)
  %29 = load ptr, ptr %6, align 8
  %30 = load i32, ptr %9, align 4
  %31 = call i32 @_ZNK8MachOper14as_XMMRegisterEP13PhaseRegAllocPK4Nodei(ptr noundef nonnull align 8 dereferenceable(8) %28, ptr noundef %29, ptr noundef %14, i32 noundef %30)
  %32 = getelementptr inbounds %class.XMMRegister, ptr %12, i32 0, i32 0
  store i32 %31, ptr %32, align 4
  %33 = call noundef ptr @_ZNK15vmulS_mem_0Node10opnd_arrayEj(ptr noundef nonnull align 8 dereferenceable(96) %14, i32 noundef 1)
  %34 = load ptr, ptr %6, align 8
  %35 = load i32, ptr %8, align 4
  %36 = load ptr, ptr %33, align 8
  %37 = getelementptr inbounds ptr, ptr %36, i64 13
  %38 = load ptr, ptr %37, align 8
  %39 = call noundef i32 %38(ptr noundef nonnull align 8 dereferenceable(8) %33, ptr noundef %34, ptr noundef %14, i32 noundef %35)
  %40 = call noundef ptr @_ZNK15vmulS_mem_0Node10opnd_arrayEj(ptr noundef nonnull align 8 dereferenceable(96) %14, i32 noundef 1)
  %41 = load ptr, ptr %6, align 8
  %42 = load i32, ptr %8, align 4
  %43 = load ptr, ptr %40, align 8
  %44 = getelementptr inbounds ptr, ptr %43, i64 14
  %45 = load ptr, ptr %44, align 8
  %46 = call noundef i32 %45(ptr noundef nonnull align 8 dereferenceable(8) %40, ptr noundef %41, ptr noundef %14, i32 noundef %42)
  %47 = call noundef ptr @_ZNK15vmulS_mem_0Node10opnd_arrayEj(ptr noundef nonnull align 8 dereferenceable(96) %14, i32 noundef 1)
  %48 = load ptr, ptr %47, align 8
  %49 = getelementptr inbounds ptr, ptr %48, i64 15
  %50 = load ptr, ptr %49, align 8
  %51 = call noundef i32 %50(ptr noundef nonnull align 8 dereferenceable(8) %47)
  %52 = call noundef ptr @_ZNK15vmulS_mem_0Node10opnd_arrayEj(ptr noundef nonnull align 8 dereferenceable(96) %14, i32 noundef 1)
  %53 = load ptr, ptr %6, align 8
  %54 = load i32, ptr %8, align 4
  %55 = load ptr, ptr %52, align 8
  %56 = getelementptr inbounds ptr, ptr %55, i64 16
  %57 = load ptr, ptr %56, align 8
  %58 = call noundef i32 %57(ptr noundef nonnull align 8 dereferenceable(8) %52, ptr noundef %53, ptr noundef %14, i32 noundef %54)
  %59 = call noundef ptr @_ZNK15vmulS_mem_0Node10opnd_arrayEj(ptr noundef nonnull align 8 dereferenceable(96) %14, i32 noundef 1)
  %60 = load ptr, ptr %59, align 8
  %61 = getelementptr inbounds ptr, ptr %60, i64 17
  %62 = load ptr, ptr %61, align 8
  %63 = call noundef i32 %62(ptr noundef nonnull align 8 dereferenceable(8) %59)
  call void @_ZN7Address8make_rawEiiiiN9relocInfo9relocTypeE(ptr dead_on_unwind writable sret(%class.Address) align 8 %13, i32 noundef %39, i32 noundef %46, i32 noundef %51, i32 noundef %58, i32 noundef %63)
  %64 = load i32, ptr %10, align 4
  %65 = getelementptr inbounds %class.XMMRegister, ptr %11, i32 0, i32 0
  %66 = load i32, ptr %65, align 4
  %67 = getelementptr inbounds %class.XMMRegister, ptr %12, i32 0, i32 0
  %68 = load i32, ptr %67, align 4
  call void @_ZN14MacroAssembler7vpmullwE11XMMRegisterS0_7Addressi(ptr noundef nonnull align 8 dereferenceable(40) %23, i32 %66, i32 %68, ptr noundef %13, i32 noundef %64)
  ret void
}